; Function Attrs: mustprogress uwtable
define void @_ZN2pb11CppFeatures9MergeImplERN6google8protobuf11MessageLiteERKS3_(ptr noundef nonnull align 8 dereferenceable(16) %to_msg, ptr nocapture noundef nonnull readonly align 8 dereferenceable(16) %from_msg) #3 align 2 {
entry:
  %0 = getelementptr inbounds i8, ptr %from_msg, i64 16
  %1 = load i32, ptr %0, align 8
  %and = and i32 %1, 1
  %tobool.not = icmp eq i32 %and, 0
  br i1 %tobool.not, label %if.end, label %if.then

if.then:                                          ; preds = %entry
  %legacy_closed_enum_ = getelementptr inbounds i8, ptr %from_msg, i64 24
  %2 = load i8, ptr %legacy_closed_enum_, align 8
  %3 = and i8 %2, 1
  %legacy_closed_enum_3 = getelementptr inbounds i8, ptr %to_msg, i64 24
  store i8 %3, ptr %legacy_closed_enum_3, align 8
  br label %if.end

if.end:                                           ; preds = %if.then, %entry
  %4 = getelementptr inbounds i8, ptr %to_msg, i64 16
  %5 = load i32, ptr %4, align 8
  %or = or i32 %5, %1
  store i32 %or, ptr %4, align 8
  %_internal_metadata_6 = getelementptr inbounds i8, ptr %from_msg, i64 8
  %6 = load i64, ptr %_internal_metadata_6, align 8
  %and.i18 = and i64 %6, 1
  %tobool.i19.not = icmp eq i64 %and.i18, 0
  br i1 %tobool.i19.not, label %_ZN6google8protobuf8internal16InternalMetadata9MergeFromINS0_15UnknownFieldSetEEEvRKS2_.exit, label %if.then.i.i

if.then.i.i:                                      ; preds = %if.end
  %_internal_metadata_ = getelementptr inbounds i8, ptr %to_msg, i64 8
  %and.i = and i64 %6, -2
  %7 = inttoptr i64 %and.i to ptr
  %unknown_fields.i.i = getelementptr inbounds i8, ptr %7, i64 8
  tail call void @_ZN6google8protobuf8internal16InternalMetadata11DoMergeFromINS0_15UnknownFieldSetEEEvRKT_(ptr noundef nonnull align 8 dereferenceable(8) %_internal_metadata_, ptr noundef nonnull align 8 dereferenceable(24) %unknown_fields.i.i)
  br label %_ZN6google8protobuf8internal16InternalMetadata9MergeFromINS0_15UnknownFieldSetEEEvRKS2_.exit

_ZN6google8protobuf8internal16InternalMetadata9MergeFromINS0_15UnknownFieldSetEEEvRKS2_.exit: ; preds = %if.then.i.i, %if.end
  ret void
}